; Function Attrs: mustprogress uwtable
define void @_ZN6casadi6SXElem3symERKNSt7__cxx1112basic_stringIcSt11char_traitsIcESaIcEEE(ptr dead_on_unwind noalias writable sret(%"class.casadi::SXElem") align 8 %0, ptr noundef nonnull align 8 dereferenceable(32) %1) local_unnamed_addr #6 align 2 personality ptr @__gxx_personality_v0 {
  %3 = tail call noalias noundef nonnull dereferenceable(48) ptr @_Znwm(i64 noundef 48) #24
  invoke void @_ZN6casadi6SXNodeC2Ev(ptr noundef nonnull align 8 dereferenceable(16) %3)
          to label %.noexc unwind label %7

.noexc:                                           ; preds = %2
  store ptr getelementptr inbounds ({ [28 x ptr] }, ptr @_ZTVN6casadi10SymbolicSXE, i64 0, i32 0, i64 2), ptr %3, align 8
  %4 = getelementptr inbounds i8, ptr %3, i64 16
  invoke void @_ZNSt7__cxx1112basic_stringIcSt11char_traitsIcESaIcEEC1ERKS4_(ptr noundef nonnull align 8 dereferenceable(32) %4, ptr noundef nonnull align 8 dereferenceable(32) %1)
          to label %_ZN6casadi10SymbolicSXC2ERKNSt7__cxx1112basic_stringIcSt11char_traitsIcESaIcEEE.exit unwind label %5

5:                                                ; preds = %.noexc
  %6 = landingpad { ptr, i32 }
          cleanup
  tail call void @_ZN6casadi6SXNodeD2Ev(ptr noundef nonnull align 8 dereferenceable(16) %3) #25
  br label %.body

_ZN6casadi10SymbolicSXC2ERKNSt7__cxx1112basic_stringIcSt11char_traitsIcESaIcEEE.exit: ; preds = %.noexc
  tail call void @_ZN6casadi6SXElemC1EPNS_6SXNodeEb(ptr noundef nonnull align 8 dereferenceable(8) %0, ptr noundef nonnull %3, i1 noundef zeroext false)
  ret void

7:                                                ; preds = %2
  %8 = landingpad { ptr, i32 }
          cleanup
  br label %.body

.body:                                            ; preds = %5, %7
  %eh.lpad-body = phi { ptr, i32 } [ %8, %7 ], [ %6, %5 ]
  tail call void @_ZdlPv(ptr noundef nonnull %3) #23
  resume { ptr, i32 } %eh.lpad-body
}